; Function Attrs: mustprogress uwtable
define void @_ZN2cv16structured_light34SinusoidalPatternProfilometry_Impl17computeInverseDftERKNS_11_InputArrayERKNS_12_OutputArrayEb(ptr noundef nonnull readnone align 8 captures(none) dereferenceable(88) %0, ptr noundef nonnull readonly align 8 captures(none) dereferenceable(24) %1, ptr noundef nonnull readonly align 8 captures(none) dereferenceable(24) %2, i1 noundef zeroext %3) local_unnamed_addr #7 align 2 personality ptr @__gxx_personality_v0 {
  %5 = alloca %"class.cv::_InputArray", align 8
  %6 = alloca %"class.cv::_OutputArray", align 8
  %7 = alloca %"class.cv::_InputArray", align 8
  %8 = alloca %"class.cv::_OutputArray", align 8
  %9 = getelementptr inbounds nuw i8, ptr %1, i64 8
  %10 = load ptr, ptr %9, align 8, !tbaa !34
  %11 = getelementptr inbounds nuw i8, ptr %2, i64 8
  %12 = load ptr, ptr %11, align 8, !tbaa !34
  br i1 %3, label %13, label %19

13:                                               ; preds = %4
  call void @llvm.lifetime.start.p0(i64 24, ptr nonnull %5) #32
  %14 = getelementptr inbounds nuw i8, ptr %5, i64 16
  store i32 0, ptr %14, align 8, !tbaa !115
  %15 = getelementptr inbounds nuw i8, ptr %5, i64 20
  store i32 0, ptr %15, align 4, !tbaa !116
  store i32 16842752, ptr %5, align 8, !tbaa !109
  %16 = getelementptr inbounds nuw i8, ptr %5, i64 8
  store ptr %10, ptr %16, align 8, !tbaa !34
  call void @llvm.lifetime.start.p0(i64 24, ptr nonnull %6) #32
  %17 = getelementptr inbounds nuw i8, ptr %6, i64 8
  %18 = getelementptr inbounds nuw i8, ptr %6, i64 16
  store i64 0, ptr %18, align 8
  store i32 33619968, ptr %6, align 8, !tbaa !109
  store ptr %12, ptr %17, align 8, !tbaa !34
  call void @_ZN2cv4idftERKNS_11_InputArrayERKNS_12_OutputArrayEii(ptr noundef nonnull align 8 dereferenceable(24) %5, ptr noundef nonnull align 8 dereferenceable(24) %6, i32 noundef 34, i32 noundef 0)
  call void @llvm.lifetime.end.p0(i64 24, ptr nonnull %6) #32
  call void @llvm.lifetime.end.p0(i64 24, ptr nonnull %5) #32
  br label %25

19:                                               ; preds = %4
  call void @llvm.lifetime.start.p0(i64 24, ptr nonnull %7) #32
  %20 = getelementptr inbounds nuw i8, ptr %7, i64 16
  store i32 0, ptr %20, align 8, !tbaa !115
  %21 = getelementptr inbounds nuw i8, ptr %7, i64 20
  store i32 0, ptr %21, align 4, !tbaa !116
  store i32 16842752, ptr %7, align 8, !tbaa !109
  %22 = getelementptr inbounds nuw i8, ptr %7, i64 8
  store ptr %10, ptr %22, align 8, !tbaa !34
  call void @llvm.lifetime.start.p0(i64 24, ptr nonnull %8) #32
  %23 = getelementptr inbounds nuw i8, ptr %8, i64 8
  %24 = getelementptr inbounds nuw i8, ptr %8, i64 16
  store i64 0, ptr %24, align 8
  store i32 33619968, ptr %8, align 8, !tbaa !109
  store ptr %12, ptr %23, align 8, !tbaa !34
  call void @_ZN2cv4idftERKNS_11_InputArrayERKNS_12_OutputArrayEii(ptr noundef nonnull align 8 dereferenceable(24) %7, ptr noundef nonnull align 8 dereferenceable(24) %8, i32 noundef 2, i32 noundef 0)
  call void @llvm.lifetime.end.p0(i64 24, ptr nonnull %8) #32
  call void @llvm.lifetime.end.p0(i64 24, ptr nonnull %7) #32
  br label %25

25:                                               ; preds = %19, %13
  ret void
}